; Function Attrs: mustprogress uwtable
define noundef double @_ZNK8QuantLib23Fdm2dBlackScholesSolver8gammaXatEdd(ptr noundef nonnull align 8 dereferenceable(208) %this, double noundef %u, double noundef %v) local_unnamed_addr #4 align 2 {
entry:
  %vtable = load ptr, ptr %this, align 8, !tbaa !14
  %vfn = getelementptr inbounds i8, ptr %vtable, i64 24
  %0 = load ptr, ptr %vfn, align 8
  tail call void %0(ptr noundef nonnull align 8 dereferenceable(12) %this)
  %call = tail call double @log(double noundef %u) #27, !tbaa !116
  %call2 = tail call double @log(double noundef %v) #27, !tbaa !116
  %solver_ = getelementptr inbounds nuw i8, ptr %this, i64 192
  %1 = load ptr, ptr %solver_, align 8, !tbaa !96
  %cmp.not.i = icmp eq ptr %1, null
  br i1 %cmp.not.i, label %cond.false.i, label %_ZNK5boost10shared_ptrIN8QuantLib13Fdm2DimSolverEEptEv.exit, !prof !66

cond.false.i:                                     ; preds = %entry
  tail call void @_ZN5boost16assertion_failedEPKcS1_S1_l(ptr noundef nonnull @.str.10, ptr noundef nonnull @__PRETTY_FUNCTION__._ZNK5boost10shared_ptrIN8QuantLib13Fdm2DimSolverEEptEv, ptr noundef nonnull @.str.11, i64 noundef 784)
  %.pre.i = load ptr, ptr %solver_, align 8, !tbaa !96
  br label %_ZNK5boost10shared_ptrIN8QuantLib13Fdm2DimSolverEEptEv.exit

_ZNK5boost10shared_ptrIN8QuantLib13Fdm2DimSolverEEptEv.exit: ; preds = %entry, %cond.false.i
  %2 = phi ptr [ %1, %entry ], [ %.pre.i, %cond.false.i ]
  %call4 = tail call noundef double @_ZNK8QuantLib13Fdm2DimSolver12derivativeXXEdd(ptr noundef nonnull align 8 dereferenceable(296) %2, double noundef %call, double noundef %call2)
  %3 = load ptr, ptr %solver_, align 8, !tbaa !96
  %cmp.not.i5 = icmp eq ptr %3, null
  br i1 %cmp.not.i5, label %cond.false.i6, label %_ZNK5boost10shared_ptrIN8QuantLib13Fdm2DimSolverEEptEv.exit8, !prof !66

cond.false.i6:                                    ; preds = %_ZNK5boost10shared_ptrIN8QuantLib13Fdm2DimSolverEEptEv.exit
  tail call void @_ZN5boost16assertion_failedEPKcS1_S1_l(ptr noundef nonnull @.str.10, ptr noundef nonnull @__PRETTY_FUNCTION__._ZNK5boost10shared_ptrIN8QuantLib13Fdm2DimSolverEEptEv, ptr noundef nonnull @.str.11, i64 noundef 784)
  %.pre.i7 = load ptr, ptr %solver_, align 8, !tbaa !96
  br label %_ZNK5boost10shared_ptrIN8QuantLib13Fdm2DimSolverEEptEv.exit8

_ZNK5boost10shared_ptrIN8QuantLib13Fdm2DimSolverEEptEv.exit8: ; preds = %_ZNK5boost10shared_ptrIN8QuantLib13Fdm2DimSolverEEptEv.exit, %cond.false.i6
  %4 = phi ptr [ %3, %_ZNK5boost10shared_ptrIN8QuantLib13Fdm2DimSolverEEptEv.exit ], [ %.pre.i7, %cond.false.i6 ]
  %call7 = tail call noundef double @_ZNK8QuantLib13Fdm2DimSolver11derivativeXEdd(ptr noundef nonnull align 8 dereferenceable(296) %4, double noundef %call, double noundef %call2)
  %sub = fsub double %call4, %call7
  %mul = fmul double %u, %u
  %div = fdiv double %sub, %mul
  ret double %div
}